                 U __assert_fail@GLIBC_2.2.5
0000000000013288 b completed.0
                 U __cxa_begin_catch@CXXABI_1.3
                 U __cxa_end_catch@CXXABI_1.3
                 w __cxa_finalize@GLIBC_2.2.5
                 U __cxa_rethrow@CXXABI_1.3
000000000000362c t deregister_tm_clones
0000000000003687 t __do_global_dtors_aux
0000000000012d00 d __do_global_dtors_aux_fini_array_entry
0000000000013278 d __dso_handle
0000000000013280 d DW.ref.__gxx_personality_v0
0000000000012d90 d _DYNAMIC
                 U exit@GLIBC_2.2.5
000000000000f230 t _fini
00000000000036bd t frame_dummy
0000000000012cf0 d __frame_dummy_init_array_entry
0000000000011a00 r __FRAME_END__
0000000000012fe8 d _GLOBAL_OFFSET_TABLE_
0000000000003620 t _GLOBAL__sub_I_gemmini.cc
                 w __gmon_start__
0000000000010a10 r __GNU_EH_FRAME_HDR
                 U __gxx_personality_v0@CXXABI_1.3
0000000000003000 t _init
                 w _ITM_deregisterTMCloneTable
                 w _ITM_registerTMCloneTable
                 U memmove@GLIBC_2.2.5
                 U memset@GLIBC_2.2.5
                 U printf@GLIBC_2.2.5
                 U putchar@GLIBC_2.2.5
                 U puts@GLIBC_2.2.5
                 U rand@GLIBC_2.2.5
000000000000364e t register_tm_clones
                 U sqrt@GLIBC_2.2.5
0000000000013288 d __TMC_END__
                 U _Unwind_Resume@GCC_3.0
00000000000044e0 T _Z10apply_iexpiiiii
00000000000044b0 T _Z11apply_igeluiii
000000000000dd80 W _Z13matrix_zeroesIaEPSt6vectorIS0_IT_SaIS1_EESaIS3_EEmm
000000000000f0c0 W _Z13matrix_zeroesIiEPSt6vectorIS0_IT_SaIS1_EESaIS3_EEmm
                 U _Z18register_extensionPKcSt8functionIFP11extension_tvEE
                 U _Z19illegal_instructionP11processor_t6insn_tm
                 U _ZdlPvm@CXXABI_1.3.9
0000000000013294 b _ZL13dummy_gemmini
000000000000bf40 t _ZL14gemmini_customP11processor_t6insn_tm
                 U _ZN11extension_t19illegal_instructionER11processor_t
000000000000c8c0 W _ZN11extension_t5resetER11processor_t
000000000000c8d0 W _ZN11extension_t9set_debugEbRK11processor_t
                 U _ZN11processor_t13get_extensionEPKc
000000000000b640 T _ZN15gemmini_state_t5resetEv
00000000000035e2 t _ZN15gemmini_state_t5resetEv.cold
000000000000d010 W _ZN16register_gemminiC1Ev
000000000000d010 W _ZN16register_gemminiC2Ev
                 U _ZN5mmu_t14load_slow_pathEmmPh13xlate_flags_t
                 U _ZN5mmu_t15store_slow_pathEmmPKh13xlate_flags_tbb
0000000000004500 T _ZN9gemmini_t10apply_normEPKimN15gemmini_state_t7NormCmdE
0000000000004800 T _ZN9gemmini_t10mvin_scaleEaf
00000000000036d0 T _ZN9gemmini_t11get_disasmsEPK11processor_t
000000000000c3f0 T _ZN9gemmini_t12compute_ciscEv
0000000000008470 T _ZN9gemmini_t12loop_conv_wsEmm
000000000000d2c0 W _ZN9gemmini_t13write_to_dramIaEEvmT_
000000000000d7a0 W _ZN9gemmini_t13write_to_dramIiEEvmT_
000000000000db90 W _ZN9gemmini_t14read_from_dramIaEET_m
000000000000d3b0 W _ZN9gemmini_t14read_from_dramIiEET_m
0000000000004480 T _ZN9gemmini_t16apply_activationEaN15gemmini_state_t10ActivationE
00000000000036f0 T _ZN9gemmini_t16get_instructionsERK11processor_t
0000000000003530 t _ZN9gemmini_t16get_instructionsERK11processor_t.cold
0000000000004ac0 T _ZN9gemmini_t17counter_incrementEj
00000000000037e0 T _ZN9gemmini_t17counter_operationEm
00000000000044a0 T _ZN9gemmini_t20apply_activation_accEa
0000000000004490 T _ZN9gemmini_t20apply_activation_sysEa
0000000000003b50 T _ZN9gemmini_t21loop_conv_ws_config_1Emm
0000000000003bb0 T _ZN9gemmini_t21loop_conv_ws_config_2Emm
0000000000003c30 T _ZN9gemmini_t21loop_conv_ws_config_3Emm
0000000000003cb0 T _ZN9gemmini_t21loop_conv_ws_config_4Emm
0000000000003d40 T _ZN9gemmini_t21loop_conv_ws_config_5Emm
0000000000003d50 T _ZN9gemmini_t21loop_conv_ws_config_6Emm
0000000000003ab0 T _ZN9gemmini_t21loop_ws_config_boundsEmm
000000000000b3b0 t _ZN9gemmini_t21read_matrix_from_dramIaEEPSt6vectorIS1_IT_SaIS2_EESaIS4_EEmmmbb.constprop.0
0000000000003b10 T _ZN9gemmini_t23loop_ws_config_addrs_ABEmm
0000000000003b20 T _ZN9gemmini_t23loop_ws_config_addrs_DCEmm
0000000000003d70 T _ZN9gemmini_t23scale_t_bits_to_scale_tEj
0000000000003d60 T _ZN9gemmini_t23scale_t_to_scale_t_bitsEf
00000000000049b0 T _ZN9gemmini_t24apply_pre_activation_accEi
0000000000004b60 T _ZN9gemmini_t24counter_increment_randomEv
00000000000047c0 T _ZN9gemmini_t24non_terminating_norm_cmdEN15gemmini_state_t7NormCmdE
0000000000003b30 T _ZN9gemmini_t25loop_ws_config_strides_ABEmm
0000000000003b40 T _ZN9gemmini_t25loop_ws_config_strides_DCEmm
0000000000003d90 T _ZN9gemmini_t31acc_scale_t_bits_to_acc_scale_tEj
0000000000003d80 T _ZN9gemmini_t31acc_scale_t_to_acc_scale_t_bitsEf
0000000000006df0 T _ZN9gemmini_t4mvinEmmi
00000000000063a0 T _ZN9gemmini_t5mvoutEmm
000000000000baf0 T _ZN9gemmini_t5resetEv
0000000000003da0 T _ZN9gemmini_t6configEmm
0000000000004bc0 T _ZN9gemmini_t7computeEmmb
000000000000354c t _ZN9gemmini_t7computeEmmb.cold
000000000000bb00 T _ZN9gemmini_t7custom3E11rocc_insn_tmm
0000000000007600 T _ZN9gemmini_t7loop_wsEmm
0000000000003770 T _ZN9gemmini_t7preloadEmm
00000000000048d0 T _ZN9gemmini_t9acc_scaleEif
0000000000004a70 T _ZN9gemmini_t9sys_shiftEij
000000000000cea0 W _ZN9gemmini_tD0Ev
000000000000cd30 W _ZN9gemmini_tD1Ev
000000000000cd30 W _ZN9gemmini_tD2Ev
000000000000c8a0 W _ZNK11extension_t8get_csrsER11processor_t
000000000000c8e0 W _ZNK9gemmini_t4nameEv
000000000000c8f0 W _ZNSt17_Function_handlerIFP11extension_tvEZN16register_gemminiC4EvEUlvE_E10_M_managerERSt9_Any_dataRKS6_St18_Manager_operation
000000000000c920 W _ZNSt17_Function_handlerIFP11extension_tvEZN16register_gemminiC4EvEUlvE_E9_M_invokeERKSt9_Any_data
000000000000cba0 t _ZNSt6vectorIaSaIaEEaSERKS1_.isra.0
000000000000d090 W _ZNSt6vectorIaSaIaEED1Ev
000000000000d090 W _ZNSt6vectorIaSaIaEED2Ev
000000000000ca00 t _ZNSt6vectorIiSaIiEEaSERKS1_.isra.0
000000000000d0c0 W _ZNSt6vectorIiSaIiEED1Ev
000000000000d0c0 W _ZNSt6vectorIiSaIiEED2Ev
000000000000def0 W _ZNSt6vectorIS_IaSaIaEESaIS1_EE14_M_fill_insertEN9__gnu_cxx17__normal_iteratorIPS1_S3_EEmRKS1_
000000000000e870 W _ZNSt6vectorIS_IiSaIiEESaIS1_EE14_M_fill_insertEN9__gnu_cxx17__normal_iteratorIPS1_S3_EEmRKS1_
000000000000d0f0 W _ZNSt6vectorISt5tupleIJmmhEESaIS1_EE17_M_realloc_insertIJS1_EEEvN9__gnu_cxx17__normal_iteratorIPS1_S3_EEDpOT_
                 U _Znwm@GLIBCXX_3.4
                 U _ZSt17__throw_bad_allocv@GLIBCXX_3.4
000000000000dc70 W _ZSt18__do_uninit_fill_nIPSt6vectorIaSaIaEEmS2_ET_S4_T0_RKT1_
000000000000e730 W _ZSt18__do_uninit_fill_nIPSt6vectorIiSaIiEEmS2_ET_S4_T0_RKT1_
                 U _ZSt18_Rb_tree_decrementPSt18_Rb_tree_node_base@GLIBCXX_3.4
                 U _ZSt18_Rb_tree_incrementPSt18_Rb_tree_node_base@GLIBCXX_3.4
                 U _ZSt20__throw_length_errorPKc@GLIBCXX_3.4
                 U _ZSt21ios_base_library_initv@GLIBCXX_3.4.32
                 U _ZSt24__throw_out_of_range_fmtPKcz@GLIBCXX_3.4.20
                 U _ZSt28__throw_bad_array_new_lengthv@GLIBCXX_3.4.29
                 U _ZSt29_Rb_tree_insert_and_rebalancebPSt18_Rb_tree_node_baseS0_RS_@GLIBCXX_3.4
0000000000012d08 V _ZTI11extension_t
0000000000012d18 V _ZTI9gemmini_t
0000000000012d30 V _ZTIZN16register_gemminiC4EvEUlvE_
0000000000010900 V _ZTS11extension_t
0000000000010910 V _ZTS9gemmini_t
0000000000010920 V _ZTSZN16register_gemminiC4EvEUlvE_
0000000000012d40 V _ZTV9gemmini_t
                 U _ZTVN10__cxxabiv117__class_type_infoE@CXXABI_1.3
                 U _ZTVN10__cxxabiv120__si_class_type_infoE@CXXABI_1.3
000000000001328c b _ZZN9gemmini_t12loop_conv_wsEmmE13C_sp_addr_row
0000000000013290 b _ZZN9gemmini_t12loop_conv_wsEmmE13D_sp_addr_row
